target datalayout = "e-m:e-p270:32:32-p271:32:32-p272:64:64-i64:64-i128:128-f80:128-n8:16:32:64-S128"
target triple = "x86_64-pc-linux-gnu"

%struct.hashTypeIterator = type { ptr, i32, ptr, ptr, ptr, i64, ptr, ptr }

@.str.1 = private unnamed_addr constant [6 x i8] c"aof.c\00", align 1
@.str.178 = private unnamed_addr constant [22 x i8] c"Unknown hash encoding\00", align 1

; Function Attrs: nounwind uwtable
define internal i32 @rioWriteHashIteratorCursor(ptr noundef %0, ptr noundef %1, i32 noundef %2) #0 {
  %4 = alloca i32, align 4
  %5 = alloca ptr, align 8
  %6 = alloca ptr, align 8
  %7 = alloca i32, align 4
  %8 = alloca ptr, align 8
  %9 = alloca i32, align 4
  %10 = alloca i64, align 8
  %11 = alloca i32, align 4
  %12 = alloca ptr, align 8
  %13 = alloca i64, align 8
  store ptr %0, ptr %5, align 8, !tbaa !173
  store ptr %1, ptr %6, align 8, !tbaa !5
  store i32 %2, ptr %7, align 4, !tbaa !22
  %14 = load ptr, ptr %6, align 8, !tbaa !5
  %15 = getelementptr inbounds nuw %struct.hashTypeIterator, ptr %14, i32 0, i32 1
  %16 = load i32, ptr %15, align 8, !tbaa !193
  %17 = icmp eq i32 %16, 11
  br i1 %17, label %23, label %18

18:                                               ; preds = %3
  %19 = load ptr, ptr %6, align 8, !tbaa !5
  %20 = getelementptr inbounds nuw %struct.hashTypeIterator, ptr %19, i32 0, i32 1
  %21 = load i32, ptr %20, align 8, !tbaa !193
  %22 = icmp eq i32 %21, 12
  br i1 %22, label %23, label %41

23:                                               ; preds = %18, %3
  call void @llvm.lifetime.start.p0(i64 8, ptr %8) #12
  store ptr null, ptr %8, align 8, !tbaa !18
  call void @llvm.lifetime.start.p0(i64 4, ptr %9) #12
  store i32 -1, ptr %9, align 4, !tbaa !22
  call void @llvm.lifetime.start.p0(i64 8, ptr %10) #12
  store i64 9223372036854775807, ptr %10, align 8, !tbaa !68
  %24 = load ptr, ptr %6, align 8, !tbaa !5
  %25 = load i32, ptr %7, align 4, !tbaa !22
  call void @hashTypeCurrentFromListpack(ptr noundef %24, i32 noundef %25, ptr noundef %8, ptr noundef %9, ptr noundef %10, ptr noundef null)
  %26 = load ptr, ptr %8, align 8, !tbaa !18
  %27 = icmp ne ptr %26, null
  br i1 %27, label %28, label %35

28:                                               ; preds = %23
  %29 = load ptr, ptr %5, align 8, !tbaa !173
  %30 = load ptr, ptr %8, align 8, !tbaa !18
  %31 = load i32, ptr %9, align 4, !tbaa !22
  %32 = zext i32 %31 to i64
  %33 = call i64 @rioWriteBulkString(ptr noundef %29, ptr noundef %30, i64 noundef %32)
  %34 = trunc i64 %33 to i32
  store i32 %34, ptr %4, align 4
  store i32 1, ptr %11, align 4
  br label %40

35:                                               ; preds = %23
  %36 = load ptr, ptr %5, align 8, !tbaa !173
  %37 = load i64, ptr %10, align 8, !tbaa !68
  %38 = call i64 @rioWriteBulkLongLong(ptr noundef %36, i64 noundef %37)
  %39 = trunc i64 %38 to i32
  store i32 %39, ptr %4, align 4
  store i32 1, ptr %11, align 4
  br label %40

40:                                               ; preds = %35, %28
  call void @llvm.lifetime.end.p0(i64 8, ptr %10) #12
  call void @llvm.lifetime.end.p0(i64 4, ptr %9) #12
  call void @llvm.lifetime.end.p0(i64 8, ptr %8) #12
  br label %56

41:                                               ; preds = %18
  %42 = load ptr, ptr %6, align 8, !tbaa !5
  %43 = getelementptr inbounds nuw %struct.hashTypeIterator, ptr %42, i32 0, i32 1
  %44 = load i32, ptr %43, align 8, !tbaa !193
  %45 = icmp eq i32 %44, 2
  br i1 %45, label %46, label %54

46:                                               ; preds = %41
  call void @llvm.lifetime.start.p0(i64 8, ptr %12) #12
  call void @llvm.lifetime.start.p0(i64 8, ptr %13) #12
  %47 = load ptr, ptr %6, align 8, !tbaa !5
  %48 = load i32, ptr %7, align 4, !tbaa !22
  call void @hashTypeCurrentFromHashTable(ptr noundef %47, i32 noundef %48, ptr noundef %12, ptr noundef %13, ptr noundef null)
  %49 = load ptr, ptr %5, align 8, !tbaa !173
  %50 = load ptr, ptr %12, align 8, !tbaa !18
  %51 = load i64, ptr %13, align 8, !tbaa !23
  %52 = call i64 @rioWriteBulkString(ptr noundef %49, ptr noundef %50, i64 noundef %51)
  %53 = trunc i64 %52 to i32
  store i32 %53, ptr %4, align 4
  store i32 1, ptr %11, align 4
  call void @llvm.lifetime.end.p0(i64 8, ptr %13) #12
  call void @llvm.lifetime.end.p0(i64 8, ptr %12) #12
  br label %56

54:                                               ; preds = %41
  br label %55

55:                                               ; preds = %54
  call void (ptr, i32, ptr, ...) @_serverPanic(ptr noundef @.str.1, i32 noundef 2055, ptr noundef @.str.178)
  call void @abort() #14
  unreachable

56:                                               ; preds = %46, %40
  %57 = load i32, ptr %4, align 4
  ret i32 %57
}