; Function Attrs: nounwind uwtable
define internal fastcc i32 @rioWriteHashIteratorCursor(ptr noundef %0, ptr noundef %1, i32 noundef range(i32 1, 3) %2) unnamed_addr #0 {
  %4 = alloca ptr, align 8
  %5 = alloca i32, align 4
  %6 = alloca i64, align 8
  %7 = alloca ptr, align 8
  %8 = alloca i64, align 8
  %9 = getelementptr inbounds nuw i8, ptr %1, i64 8
  %10 = load i32, ptr %9, align 8, !tbaa !174
  switch i32 %10, label %25 [
    i32 11, label %11
    i32 12, label %11
    i32 2, label %21
  ]

11:                                               ; preds = %3, %3
  call void @llvm.lifetime.start.p0(i64 8, ptr nonnull %4) #20
  store ptr null, ptr %4, align 8, !tbaa !66
  call void @llvm.lifetime.start.p0(i64 4, ptr nonnull %5) #20
  store i32 -1, ptr %5, align 4, !tbaa !21
  call void @llvm.lifetime.start.p0(i64 8, ptr nonnull %6) #20
  store i64 9223372036854775807, ptr %6, align 8, !tbaa !87
  call void @hashTypeCurrentFromListpack(ptr noundef nonnull %1, i32 noundef %2, ptr noundef nonnull %4, ptr noundef nonnull %5, ptr noundef nonnull %6, ptr noundef null) #20
  %12 = load ptr, ptr %4, align 8, !tbaa !66
  %.not = icmp eq ptr %12, null
  br i1 %.not, label %17, label %13

13:                                               ; preds = %11
  %14 = load i32, ptr %5, align 4, !tbaa !21
  %15 = zext i32 %14 to i64
  %16 = call i64 @rioWriteBulkString(ptr noundef %0, ptr noundef nonnull %12, i64 noundef %15) #20
  br label %20

17:                                               ; preds = %11
  %18 = load i64, ptr %6, align 8, !tbaa !87
  %19 = call i64 @rioWriteBulkLongLong(ptr noundef %0, i64 noundef %18) #20
  br label %20

20:                                               ; preds = %17, %13
  %.0.in = phi i64 [ %16, %13 ], [ %19, %17 ]
  call void @llvm.lifetime.end.p0(i64 8, ptr nonnull %6) #20
  call void @llvm.lifetime.end.p0(i64 4, ptr nonnull %5) #20
  call void @llvm.lifetime.end.p0(i64 8, ptr nonnull %4) #20
  br label %26

21:                                               ; preds = %3
  call void @llvm.lifetime.start.p0(i64 8, ptr nonnull %7) #20
  call void @llvm.lifetime.start.p0(i64 8, ptr nonnull %8) #20
  call void @hashTypeCurrentFromHashTable(ptr noundef nonnull %1, i32 noundef %2, ptr noundef nonnull %7, ptr noundef nonnull %8, ptr noundef null) #20
  %22 = load ptr, ptr %7, align 8, !tbaa !66
  %23 = load i64, ptr %8, align 8, !tbaa !22
  %24 = call i64 @rioWriteBulkString(ptr noundef %0, ptr noundef %22, i64 noundef %23) #20
  call void @llvm.lifetime.end.p0(i64 8, ptr nonnull %8) #20
  call void @llvm.lifetime.end.p0(i64 8, ptr nonnull %7) #20
  br label %26

25:                                               ; preds = %3
  tail call void (ptr, i32, ptr, ...) @_serverPanic(ptr noundef nonnull @.str.1, i32 noundef 2055, ptr noundef nonnull @.str.178) #20
  tail call void @abort() #21
  unreachable

26:                                               ; preds = %21, %20
  %.1.in = phi i64 [ %.0.in, %20 ], [ %24, %21 ]
  %.1 = trunc i64 %.1.in to i32
  ret i32 %.1
}